; Function Attrs: nounwind uwtable
define hidden zeroext i8 @isMethodObsolete(ptr noundef %0) local_unnamed_addr #0 {
  %2 = alloca i8, align 1
  store i8 1, ptr %2, align 1
  %.not = icmp eq ptr %0, null
  br i1 %.not, label %._crit_edge, label %3

3:                                                ; preds = %1
  %4 = load ptr, ptr @gdata, align 8
  %5 = getelementptr inbounds i8, ptr %4, i64 528
  %6 = load i32, ptr %5, align 8
  %7 = and i32 %6, 4
  %.not2 = icmp eq i32 %7, 0
  br i1 %.not2, label %9, label %8

8:                                                ; preds = %3
  tail call void @log_message_begin(ptr noundef nonnull @.str.45, ptr noundef nonnull @.str.4, i32 noundef 1700) #14
  tail call void (ptr, ...) @log_message_end(ptr noundef nonnull @.str.9, ptr noundef nonnull @.str.115) #14
  %.pre = load ptr, ptr @gdata, align 8
  br label %9

9:                                                ; preds = %3, %8
  %10 = phi ptr [ %4, %3 ], [ %.pre, %8 ]
  %11 = load ptr, ptr %10, align 8
  %12 = load ptr, ptr %11, align 8
  %13 = getelementptr inbounds i8, ptr %12, i64 720
  %14 = load ptr, ptr %13, align 8
  %15 = call i32 %14(ptr noundef nonnull %11, ptr noundef nonnull %0, ptr noundef nonnull %2) #14
  %.not3 = icmp eq i32 %15, 0
  %.pre4 = load i8, ptr %2, align 1
  %spec.select = select i1 %.not3, i8 %.pre4, i8 1
  br label %._crit_edge

._crit_edge:                                      ; preds = %9, %1
  %16 = phi i8 [ 1, %1 ], [ %spec.select, %9 ]
  ret i8 %16
}